; Function Attrs: mustprogress nofree norecurse nosync nounwind sspstrong willreturn memory(argmem: write) uwtable
define internal noundef i32 @write_vcsr(ptr noundef writeonly captures(none) initializes((4608, 4624)) %env, i32 %csrno, i64 noundef %val) #5 {
entry:
  %and = lshr i64 %val, 1
  %shr = and i64 %and, 3
  %vxrm = getelementptr inbounds nuw i8, ptr %env, i64 4608
  store i64 %shr, ptr %vxrm, align 16
  %and1 = and i64 %val, 1
  %vxsat = getelementptr inbounds nuw i8, ptr %env, i64 4616
  store i64 %and1, ptr %vxsat, align 8
  ret i32 -1
}